target datalayout = "e-m:e-p270:32:32-p271:32:32-p272:64:64-i64:64-i128:128-f80:128-n8:16:32:64-S128"
target triple = "x86_64-pc-linux-gnu"

%struct._zval_struct = type { %union._zend_value, %union.anon.2, %union.anon.5 }
%union._zend_value = type { i64 }
%union.anon.2 = type { i32 }
%union.anon.5 = type { i32 }
%struct._zend_refcounted_h = type { i32, %union.anon.6 }
%union.anon.6 = type { i32 }
%struct._spl_filesystem_object = type { ptr, ptr, ptr, ptr, ptr, i32, i64, ptr, ptr, %union.anon, %struct._zend_object }
%union.anon = type { %struct.anon }
%struct.anon = type { ptr, ptr, i32, ptr, ptr, ptr, %struct._php_stream_dirent }
%struct._php_stream_dirent = type { [256 x i8], i8 }
%struct._zend_object = type { %struct._zend_refcounted_h, i32, ptr, ptr, ptr, [1 x %struct._zval_struct] }
%struct.spl_filesystem_iterator = type { %struct._zend_object_iterator, %struct._zval_struct, ptr }
%struct._zend_object_iterator = type { %struct._zend_object, %struct._zval_struct, ptr, i64 }

; Function Attrs: nounwind uwtable
define internal zeroext i1 @spl_filesystem_dir_read(ptr noundef %0) #0 {
  %2 = alloca ptr, align 8
  %3 = alloca i32, align 4
  %4 = alloca i32, align 4
  %5 = alloca ptr, align 8
  %6 = alloca i1, align 1
  %7 = alloca ptr, align 8
  store ptr %0, ptr %7, align 8
  %8 = load ptr, ptr %7, align 8
  %9 = getelementptr inbounds %struct._spl_filesystem_object, ptr %8, i32 0, i32 4
  %10 = load ptr, ptr %9, align 8
  %11 = icmp ne ptr %10, null
  br i1 %11, label %12, label %49

12:                                               ; preds = %1
  %13 = load ptr, ptr %7, align 8
  %14 = getelementptr inbounds %struct._spl_filesystem_object, ptr %13, i32 0, i32 4
  %15 = load ptr, ptr %14, align 8
  store ptr %15, ptr %5, align 8
  %16 = load ptr, ptr %5, align 8
  %17 = getelementptr inbounds %struct._zend_refcounted_h, ptr %16, i32 0, i32 1
  %18 = load i32, ptr %17, align 4
  store i32 %18, ptr %3, align 4
  %19 = load i32, ptr %3, align 4
  %20 = and i32 %19, 1008
  %21 = and i32 %20, 64
  %22 = icmp ne i32 %21, 0
  br i1 %22, label %46, label %23

23:                                               ; preds = %12
  %24 = load ptr, ptr %5, align 8
  store ptr %24, ptr %2, align 8
  %25 = load ptr, ptr %2, align 8
  %26 = load i32, ptr %25, align 4
  %27 = icmp ugt i32 %26, 0
  call void @llvm.assume(i1 %27)
  %28 = load ptr, ptr %2, align 8
  %29 = load i32, ptr %28, align 4
  %30 = add i32 %29, -1
  store i32 %30, ptr %28, align 4
  %31 = icmp eq i32 %30, 0
  br i1 %31, label %32, label %45

32:                                               ; preds = %23
  %33 = load ptr, ptr %5, align 8
  %34 = getelementptr inbounds %struct._zend_refcounted_h, ptr %33, i32 0, i32 1
  %35 = load i32, ptr %34, align 4
  store i32 %35, ptr %4, align 4
  %36 = load i32, ptr %4, align 4
  %37 = and i32 %36, 1008
  %38 = and i32 %37, 128
  %39 = icmp ne i32 %38, 0
  br i1 %39, label %40, label %42

40:                                               ; preds = %32
  %41 = load ptr, ptr %5, align 8
  call void @free(ptr noundef %41) #12
  br label %44

42:                                               ; preds = %32
  %43 = load ptr, ptr %5, align 8
  call void @_efree(ptr noundef %43) #12
  br label %44

44:                                               ; preds = %42, %40
  br label %45

45:                                               ; preds = %44, %23
  br label %46

46:                                               ; preds = %45, %12
  %47 = load ptr, ptr %7, align 8
  %48 = getelementptr inbounds %struct._spl_filesystem_object, ptr %47, i32 0, i32 4
  store ptr null, ptr %48, align 8
  br label %49

49:                                               ; preds = %46, %1
  %50 = load ptr, ptr %7, align 8
  %51 = getelementptr inbounds %struct._spl_filesystem_object, ptr %50, i32 0, i32 9
  %52 = getelementptr inbounds %struct.anon, ptr %51, i32 0, i32 0
  %53 = load ptr, ptr %52, align 8
  %54 = icmp ne ptr %53, null
  br i1 %54, label %55, label %65

55:                                               ; preds = %49
  %56 = load ptr, ptr %7, align 8
  %57 = getelementptr inbounds %struct._spl_filesystem_object, ptr %56, i32 0, i32 9
  %58 = getelementptr inbounds %struct.anon, ptr %57, i32 0, i32 0
  %59 = load ptr, ptr %58, align 8
  %60 = load ptr, ptr %7, align 8
  %61 = getelementptr inbounds %struct._spl_filesystem_object, ptr %60, i32 0, i32 9
  %62 = getelementptr inbounds %struct.anon, ptr %61, i32 0, i32 6
  %63 = call ptr @_php_stream_readdir(ptr noundef %59, ptr noundef %62)
  %64 = icmp ne ptr %63, null
  br i1 %64, label %71, label %65

65:                                               ; preds = %55, %49
  %66 = load ptr, ptr %7, align 8
  %67 = getelementptr inbounds %struct._spl_filesystem_object, ptr %66, i32 0, i32 9
  %68 = getelementptr inbounds %struct.anon, ptr %67, i32 0, i32 6
  %69 = getelementptr inbounds %struct._php_stream_dirent, ptr %68, i32 0, i32 0
  %70 = getelementptr inbounds [256 x i8], ptr %69, i64 0, i64 0
  store i8 0, ptr %70, align 8
  store i1 false, ptr %6, align 1
  br label %72

71:                                               ; preds = %55
  store i1 true, ptr %6, align 1
  br label %72

72:                                               ; preds = %71, %65
  %73 = load i1, ptr %6, align 1
  ret i1 %73
}

; Function Attrs: nounwind uwtable
define internal ptr @spl_filesystem_iterator_to_object(ptr noundef %0) #0 {
  %2 = alloca ptr, align 8
  store ptr %0, ptr %2, align 8
  %3 = load ptr, ptr %2, align 8
  %4 = getelementptr inbounds %struct.spl_filesystem_iterator, ptr %3, i32 0, i32 2
  %5 = load ptr, ptr %4, align 8
  ret ptr %5
}

; Function Attrs: nounwind uwtable
define internal void @spl_filesystem_dir_it_move_forward(ptr noundef %0) #0 {
  %2 = alloca ptr, align 8
  %3 = alloca i32, align 4
  %4 = alloca i32, align 4
  %5 = alloca ptr, align 8
  %6 = alloca ptr, align 8
  %7 = alloca ptr, align 8
  store ptr %0, ptr %6, align 8
  %8 = load ptr, ptr %6, align 8
  %9 = call ptr @spl_filesystem_iterator_to_object(ptr noundef %8)
  store ptr %9, ptr %7, align 8
  %10 = load ptr, ptr %7, align 8
  %11 = getelementptr inbounds %struct._spl_filesystem_object, ptr %10, i32 0, i32 9
  %12 = getelementptr inbounds %struct.anon, ptr %11, i32 0, i32 2
  %13 = load i32, ptr %12, align 8
  %14 = add nsw i32 %13, 1
  store i32 %14, ptr %12, align 8
  %15 = load ptr, ptr %7, align 8
  %16 = call zeroext i1 @spl_filesystem_dir_read(ptr noundef %15)
  %17 = load ptr, ptr %7, align 8
  %18 = getelementptr inbounds %struct._spl_filesystem_object, ptr %17, i32 0, i32 4
  %19 = load ptr, ptr %18, align 8
  %20 = icmp ne ptr %19, null
  br i1 %20, label %21, label %58

21:                                               ; preds = %1
  %22 = load ptr, ptr %7, align 8
  %23 = getelementptr inbounds %struct._spl_filesystem_object, ptr %22, i32 0, i32 4
  %24 = load ptr, ptr %23, align 8
  store ptr %24, ptr %5, align 8
  %25 = load ptr, ptr %5, align 8
  %26 = getelementptr inbounds %struct._zend_refcounted_h, ptr %25, i32 0, i32 1
  %27 = load i32, ptr %26, align 4
  store i32 %27, ptr %3, align 4
  %28 = load i32, ptr %3, align 4
  %29 = and i32 %28, 1008
  %30 = and i32 %29, 64
  %31 = icmp ne i32 %30, 0
  br i1 %31, label %55, label %32

32:                                               ; preds = %21
  %33 = load ptr, ptr %5, align 8
  store ptr %33, ptr %2, align 8
  %34 = load ptr, ptr %2, align 8
  %35 = load i32, ptr %34, align 4
  %36 = icmp ugt i32 %35, 0
  call void @llvm.assume(i1 %36)
  %37 = load ptr, ptr %2, align 8
  %38 = load i32, ptr %37, align 4
  %39 = add i32 %38, -1
  store i32 %39, ptr %37, align 4
  %40 = icmp eq i32 %39, 0
  br i1 %40, label %41, label %54

41:                                               ; preds = %32
  %42 = load ptr, ptr %5, align 8
  %43 = getelementptr inbounds %struct._zend_refcounted_h, ptr %42, i32 0, i32 1
  %44 = load i32, ptr %43, align 4
  store i32 %44, ptr %4, align 4
  %45 = load i32, ptr %4, align 4
  %46 = and i32 %45, 1008
  %47 = and i32 %46, 128
  %48 = icmp ne i32 %47, 0
  br i1 %48, label %49, label %51

49:                                               ; preds = %41
  %50 = load ptr, ptr %5, align 8
  call void @free(ptr noundef %50) #12
  br label %53

51:                                               ; preds = %41
  %52 = load ptr, ptr %5, align 8
  call void @_efree(ptr noundef %52) #12
  br label %53

53:                                               ; preds = %51, %49
  br label %54

54:                                               ; preds = %53, %32
  br label %55

55:                                               ; preds = %54, %21
  %56 = load ptr, ptr %7, align 8
  %57 = getelementptr inbounds %struct._spl_filesystem_object, ptr %56, i32 0, i32 4
  store ptr null, ptr %57, align 8
  br label %58

58:                                               ; preds = %55, %1
  ret void
}