; Function Attrs: nounwind uwtable
define internal void @spl_filesystem_dir_it_move_forward(ptr nocapture noundef readonly %0) #0 {
  %2 = getelementptr i8, ptr %0, i64 104
  %.val = load ptr, ptr %2, align 8
  %3 = getelementptr inbounds i8, ptr %.val, i64 88
  %4 = load i32, ptr %3, align 8
  %5 = add nsw i32 %4, 1
  store i32 %5, ptr %3, align 8
  %6 = getelementptr inbounds i8, ptr %.val, i64 32
  %7 = load ptr, ptr %6, align 8
  %.not.i = icmp eq ptr %7, null
  br i1 %.not.i, label %22, label %8

8:                                                ; preds = %1
  %9 = getelementptr inbounds i8, ptr %7, i64 4
  %10 = load i32, ptr %9, align 4
  %11 = and i32 %10, 64
  %.not18.i = icmp eq i32 %11, 0
  br i1 %.not18.i, label %12, label %21

12:                                               ; preds = %8
  %13 = load i32, ptr %7, align 4
  %14 = icmp ne i32 %13, 0
  tail call void @llvm.assume(i1 %14)
  %15 = add i32 %13, -1
  store i32 %15, ptr %7, align 4
  %16 = icmp eq i32 %15, 0
  br i1 %16, label %17, label %21

17:                                               ; preds = %12
  %18 = and i32 %10, 128
  %.not19.i = icmp eq i32 %18, 0
  br i1 %.not19.i, label %20, label %19

19:                                               ; preds = %17
  tail call void @free(ptr noundef nonnull %7) #18
  br label %21

20:                                               ; preds = %17
  tail call void @_efree(ptr noundef nonnull %7) #18
  br label %21

21:                                               ; preds = %20, %19, %12, %8
  store ptr null, ptr %6, align 8
  br label %22

22:                                               ; preds = %21, %1
  %23 = getelementptr inbounds i8, ptr %.val, i64 72
  %24 = load ptr, ptr %23, align 8
  %.not20.i = icmp eq ptr %24, null
  br i1 %.not20.i, label %28, label %25

25:                                               ; preds = %22
  %26 = getelementptr inbounds i8, ptr %.val, i64 120
  %27 = tail call ptr @_php_stream_readdir(ptr noundef nonnull %24, ptr noundef nonnull %26) #18
  %.not21.i = icmp eq ptr %27, null
  br i1 %.not21.i, label %28, label %spl_filesystem_dir_read.exit

28:                                               ; preds = %25, %22
  %29 = getelementptr inbounds i8, ptr %.val, i64 120
  store i8 0, ptr %29, align 8
  br label %spl_filesystem_dir_read.exit

spl_filesystem_dir_read.exit:                     ; preds = %25, %28
  %30 = load ptr, ptr %6, align 8
  %.not = icmp eq ptr %30, null
  br i1 %.not, label %45, label %31

31:                                               ; preds = %spl_filesystem_dir_read.exit
  %32 = getelementptr inbounds i8, ptr %30, i64 4
  %33 = load i32, ptr %32, align 4
  %34 = and i32 %33, 64
  %.not14 = icmp eq i32 %34, 0
  br i1 %.not14, label %35, label %44

35:                                               ; preds = %31
  %36 = load i32, ptr %30, align 4
  %37 = icmp ne i32 %36, 0
  tail call void @llvm.assume(i1 %37)
  %38 = add i32 %36, -1
  store i32 %38, ptr %30, align 4
  %39 = icmp eq i32 %38, 0
  br i1 %39, label %40, label %44

40:                                               ; preds = %35
  %41 = and i32 %33, 128
  %.not15 = icmp eq i32 %41, 0
  br i1 %.not15, label %43, label %42

42:                                               ; preds = %40
  tail call void @free(ptr noundef nonnull %30) #18
  br label %44

43:                                               ; preds = %40
  tail call void @_efree(ptr noundef nonnull %30) #18
  br label %44

44:                                               ; preds = %35, %43, %42, %31
  store ptr null, ptr %6, align 8
  br label %45

45:                                               ; preds = %44, %spl_filesystem_dir_read.exit
  ret void
}